; Function Attrs: nounwind uwtable
define i32 @Gia_ManCheckUnate(ptr noundef %0, i32 noundef %1, i32 noundef %2) local_unnamed_addr #0 {
  %4 = getelementptr i8, ptr %0, i64 32
  %.val = load ptr, ptr %4, align 8, !tbaa !41
  %5 = getelementptr i8, ptr %0, i64 64
  %.val22 = load ptr, ptr %5, align 8, !tbaa !12
  %6 = getelementptr i8, ptr %.val22, i64 8
  %.val22.val = load ptr, ptr %6, align 8, !tbaa !11
  %7 = sext i32 %1 to i64
  %8 = getelementptr inbounds i32, ptr %.val22.val, i64 %7
  %9 = load i32, ptr %8, align 4, !tbaa !31
  %10 = getelementptr i8, ptr %0, i64 72
  %.val30 = load ptr, ptr %10, align 8, !tbaa !34
  %11 = getelementptr i8, ptr %.val30, i64 8
  %.val30.val = load ptr, ptr %11, align 8, !tbaa !11
  %12 = sext i32 %2 to i64
  %13 = getelementptr inbounds i32, ptr %.val30.val, i64 %12
  %14 = load i32, ptr %13, align 4, !tbaa !31
  %15 = sext i32 %14 to i64
  %16 = getelementptr inbounds %struct.Gia_Obj_t_, ptr %.val, i64 %15
  tail call void @Gia_ManIncrementTravId(ptr noundef %0) #19
  tail call void @Gia_ManIncrementTravId(ptr noundef %0) #19
  %17 = getelementptr i8, ptr %0, i64 176
  %.val31 = load i32, ptr %17, align 8, !tbaa !50
  %18 = getelementptr i8, ptr %0, i64 616
  %.val32 = load ptr, ptr %18, align 8, !tbaa !51
  %19 = sext i32 %9 to i64
  %20 = getelementptr inbounds i32, ptr %.val32, i64 %19
  store i32 %.val31, ptr %20, align 4, !tbaa !31
  tail call void @Gia_ManIncrementTravId(ptr noundef %0) #19
  tail call void @Gia_ManIncrementTravId(ptr noundef %0) #19
  %.val25 = load i64, ptr %16, align 4
  %21 = trunc i64 %.val25 to i32
  %22 = and i32 %21, 536870911
  %23 = sub nsw i32 %14, %22
  %24 = tail call i32 @Gia_ManCheckUnate_rec(ptr noundef %0, i32 noundef %23)
  %25 = add i32 %24, -1
  %or.cond = icmp ult i32 %25, 2
  br i1 %or.cond, label %26, label %29

26:                                               ; preds = %3
  %.val26 = load i64, ptr %16, align 4
  %27 = and i64 %.val26, 536870912
  %.not = icmp eq i64 %27, 0
  %28 = xor i32 %24, 3
  %spec.select = select i1 %.not, i32 %24, i32 %28
  br label %29

29:                                               ; preds = %26, %3
  %30 = phi i32 [ %24, %3 ], [ %spec.select, %26 ]
  ret i32 %30
}